target datalayout = "e-m:e-p270:32:32-p271:32:32-p272:64:64-i64:64-i128:128-f80:128-n8:16:32:64-S128"
target triple = "x86_64-pc-linux-gnu"

%struct.anon = type { [3 x double] }
%struct._generic_N_Vector = type { ptr, ptr, ptr }
%struct._N_VectorContent_Serial = type { i64, i32, ptr }
%struct._generic_SUNMatrix = type { ptr, ptr, ptr }
%struct._SUNMatrixContent_Dense = type { i64, i64, ptr, i64, ptr }

; Function Attrs: nounwind uwtable
define internal i32 @Jac(double noundef %0, double noundef %1, ptr noundef %2, ptr noundef %3, ptr noundef %4, ptr noundef %5, ptr noundef %6, ptr noundef %7, ptr noundef %8, ptr noundef %9) #0 {
  %11 = alloca double, align 8
  %12 = alloca double, align 8
  %13 = alloca ptr, align 8
  %14 = alloca ptr, align 8
  %15 = alloca ptr, align 8
  %16 = alloca ptr, align 8
  %17 = alloca ptr, align 8
  %18 = alloca ptr, align 8
  %19 = alloca ptr, align 8
  %20 = alloca ptr, align 8
  %21 = alloca double, align 8
  %22 = alloca double, align 8
  %23 = alloca ptr, align 8
  %24 = alloca double, align 8
  %25 = alloca double, align 8
  %26 = alloca double, align 8
  store double %0, ptr %11, align 8, !tbaa !18
  store double %1, ptr %12, align 8, !tbaa !18
  store ptr %2, ptr %13, align 8, !tbaa !16
  store ptr %3, ptr %14, align 8, !tbaa !16
  store ptr %4, ptr %15, align 8, !tbaa !16
  store ptr %5, ptr %16, align 8, !tbaa !12
  store ptr %6, ptr %17, align 8, !tbaa !11
  store ptr %7, ptr %18, align 8, !tbaa !16
  store ptr %8, ptr %19, align 8, !tbaa !16
  store ptr %9, ptr %20, align 8, !tbaa !16
  call void @llvm.lifetime.start.p0(i64 8, ptr %21) #6
  call void @llvm.lifetime.start.p0(i64 8, ptr %22) #6
  call void @llvm.lifetime.start.p0(i64 8, ptr %23) #6
  call void @llvm.lifetime.start.p0(i64 8, ptr %24) #6
  call void @llvm.lifetime.start.p0(i64 8, ptr %25) #6
  call void @llvm.lifetime.start.p0(i64 8, ptr %26) #6
  %27 = load ptr, ptr %13, align 8, !tbaa !16
  %28 = getelementptr inbounds nuw %struct._generic_N_Vector, ptr %27, i32 0, i32 0
  %29 = load ptr, ptr %28, align 8, !tbaa !22
  %30 = getelementptr inbounds nuw %struct._N_VectorContent_Serial, ptr %29, i32 0, i32 2
  %31 = load ptr, ptr %30, align 8, !tbaa !25
  %32 = getelementptr inbounds double, ptr %31, i64 1
  %33 = load double, ptr %32, align 8, !tbaa !18
  store double %33, ptr %21, align 8, !tbaa !18
  %34 = load ptr, ptr %13, align 8, !tbaa !16
  %35 = getelementptr inbounds nuw %struct._generic_N_Vector, ptr %34, i32 0, i32 0
  %36 = load ptr, ptr %35, align 8, !tbaa !22
  %37 = getelementptr inbounds nuw %struct._N_VectorContent_Serial, ptr %36, i32 0, i32 2
  %38 = load ptr, ptr %37, align 8, !tbaa !25
  %39 = getelementptr inbounds double, ptr %38, i64 2
  %40 = load double, ptr %39, align 8, !tbaa !18
  store double %40, ptr %22, align 8, !tbaa !18
  %41 = load ptr, ptr %17, align 8, !tbaa !11
  store ptr %41, ptr %23, align 8, !tbaa !11
  %42 = load ptr, ptr %23, align 8, !tbaa !11
  %43 = getelementptr inbounds nuw %struct.anon, ptr %42, i32 0, i32 0
  %44 = getelementptr inbounds [3 x double], ptr %43, i64 0, i64 0
  %45 = load double, ptr %44, align 8, !tbaa !18
  store double %45, ptr %24, align 8, !tbaa !18
  %46 = load ptr, ptr %23, align 8, !tbaa !11
  %47 = getelementptr inbounds nuw %struct.anon, ptr %46, i32 0, i32 0
  %48 = getelementptr inbounds [3 x double], ptr %47, i64 0, i64 1
  %49 = load double, ptr %48, align 8, !tbaa !18
  store double %49, ptr %25, align 8, !tbaa !18
  %50 = load ptr, ptr %23, align 8, !tbaa !11
  %51 = getelementptr inbounds nuw %struct.anon, ptr %50, i32 0, i32 0
  %52 = getelementptr inbounds [3 x double], ptr %51, i64 0, i64 2
  %53 = load double, ptr %52, align 8, !tbaa !18
  store double %53, ptr %26, align 8, !tbaa !18
  %54 = load double, ptr %24, align 8, !tbaa !18
  %55 = load double, ptr %12, align 8, !tbaa !18
  %56 = fadd double %54, %55
  %57 = load ptr, ptr %16, align 8, !tbaa !12
  %58 = getelementptr inbounds nuw %struct._generic_SUNMatrix, ptr %57, i32 0, i32 0
  %59 = load ptr, ptr %58, align 8, !tbaa !36
  %60 = getelementptr inbounds nuw %struct._SUNMatrixContent_Dense, ptr %59, i32 0, i32 4
  %61 = load ptr, ptr %60, align 8, !tbaa !39
  %62 = getelementptr inbounds ptr, ptr %61, i64 0
  %63 = load ptr, ptr %62, align 8, !tbaa !35
  %64 = getelementptr inbounds double, ptr %63, i64 0
  store double %56, ptr %64, align 8, !tbaa !18
  %65 = load double, ptr %24, align 8, !tbaa !18
  %66 = fneg double %65
  %67 = load ptr, ptr %16, align 8, !tbaa !12
  %68 = getelementptr inbounds nuw %struct._generic_SUNMatrix, ptr %67, i32 0, i32 0
  %69 = load ptr, ptr %68, align 8, !tbaa !36
  %70 = getelementptr inbounds nuw %struct._SUNMatrixContent_Dense, ptr %69, i32 0, i32 4
  %71 = load ptr, ptr %70, align 8, !tbaa !39
  %72 = getelementptr inbounds ptr, ptr %71, i64 0
  %73 = load ptr, ptr %72, align 8, !tbaa !35
  %74 = getelementptr inbounds double, ptr %73, i64 1
  store double %66, ptr %74, align 8, !tbaa !18
  %75 = load ptr, ptr %16, align 8, !tbaa !12
  %76 = getelementptr inbounds nuw %struct._generic_SUNMatrix, ptr %75, i32 0, i32 0
  %77 = load ptr, ptr %76, align 8, !tbaa !36
  %78 = getelementptr inbounds nuw %struct._SUNMatrixContent_Dense, ptr %77, i32 0, i32 4
  %79 = load ptr, ptr %78, align 8, !tbaa !39
  %80 = getelementptr inbounds ptr, ptr %79, i64 0
  %81 = load ptr, ptr %80, align 8, !tbaa !35
  %82 = getelementptr inbounds double, ptr %81, i64 2
  store double 1.000000e+00, ptr %82, align 8, !tbaa !18
  %83 = load double, ptr %25, align 8, !tbaa !18
  %84 = fneg double %83
  %85 = load double, ptr %22, align 8, !tbaa !18
  %86 = fmul double %84, %85
  %87 = load ptr, ptr %16, align 8, !tbaa !12
  %88 = getelementptr inbounds nuw %struct._generic_SUNMatrix, ptr %87, i32 0, i32 0
  %89 = load ptr, ptr %88, align 8, !tbaa !36
  %90 = getelementptr inbounds nuw %struct._SUNMatrixContent_Dense, ptr %89, i32 0, i32 4
  %91 = load ptr, ptr %90, align 8, !tbaa !39
  %92 = getelementptr inbounds ptr, ptr %91, i64 1
  %93 = load ptr, ptr %92, align 8, !tbaa !35
  %94 = getelementptr inbounds double, ptr %93, i64 0
  store double %86, ptr %94, align 8, !tbaa !18
  %95 = load double, ptr %25, align 8, !tbaa !18
  %96 = load double, ptr %22, align 8, !tbaa !18
  %97 = load double, ptr %26, align 8, !tbaa !18
  %98 = fmul double 2.000000e+00, %97
  %99 = load double, ptr %21, align 8, !tbaa !18
  %100 = fmul double %98, %99
  %101 = call double @llvm.fmuladd.f64(double %95, double %96, double %100)
  %102 = load double, ptr %12, align 8, !tbaa !18
  %103 = fadd double %101, %102
  %104 = load ptr, ptr %16, align 8, !tbaa !12
  %105 = getelementptr inbounds nuw %struct._generic_SUNMatrix, ptr %104, i32 0, i32 0
  %106 = load ptr, ptr %105, align 8, !tbaa !36
  %107 = getelementptr inbounds nuw %struct._SUNMatrixContent_Dense, ptr %106, i32 0, i32 4
  %108 = load ptr, ptr %107, align 8, !tbaa !39
  %109 = getelementptr inbounds ptr, ptr %108, i64 1
  %110 = load ptr, ptr %109, align 8, !tbaa !35
  %111 = getelementptr inbounds double, ptr %110, i64 1
  store double %103, ptr %111, align 8, !tbaa !18
  %112 = load ptr, ptr %16, align 8, !tbaa !12
  %113 = getelementptr inbounds nuw %struct._generic_SUNMatrix, ptr %112, i32 0, i32 0
  %114 = load ptr, ptr %113, align 8, !tbaa !36
  %115 = getelementptr inbounds nuw %struct._SUNMatrixContent_Dense, ptr %114, i32 0, i32 4
  %116 = load ptr, ptr %115, align 8, !tbaa !39
  %117 = getelementptr inbounds ptr, ptr %116, i64 1
  %118 = load ptr, ptr %117, align 8, !tbaa !35
  %119 = getelementptr inbounds double, ptr %118, i64 2
  store double 1.000000e+00, ptr %119, align 8, !tbaa !18
  %120 = load double, ptr %25, align 8, !tbaa !18
  %121 = fneg double %120
  %122 = load double, ptr %21, align 8, !tbaa !18
  %123 = fmul double %121, %122
  %124 = load ptr, ptr %16, align 8, !tbaa !12
  %125 = getelementptr inbounds nuw %struct._generic_SUNMatrix, ptr %124, i32 0, i32 0
  %126 = load ptr, ptr %125, align 8, !tbaa !36
  %127 = getelementptr inbounds nuw %struct._SUNMatrixContent_Dense, ptr %126, i32 0, i32 4
  %128 = load ptr, ptr %127, align 8, !tbaa !39
  %129 = getelementptr inbounds ptr, ptr %128, i64 2
  %130 = load ptr, ptr %129, align 8, !tbaa !35
  %131 = getelementptr inbounds double, ptr %130, i64 0
  store double %123, ptr %131, align 8, !tbaa !18
  %132 = load double, ptr %25, align 8, !tbaa !18
  %133 = load double, ptr %21, align 8, !tbaa !18
  %134 = fmul double %132, %133
  %135 = load ptr, ptr %16, align 8, !tbaa !12
  %136 = getelementptr inbounds nuw %struct._generic_SUNMatrix, ptr %135, i32 0, i32 0
  %137 = load ptr, ptr %136, align 8, !tbaa !36
  %138 = getelementptr inbounds nuw %struct._SUNMatrixContent_Dense, ptr %137, i32 0, i32 4
  %139 = load ptr, ptr %138, align 8, !tbaa !39
  %140 = getelementptr inbounds ptr, ptr %139, i64 2
  %141 = load ptr, ptr %140, align 8, !tbaa !35
  %142 = getelementptr inbounds double, ptr %141, i64 1
  store double %134, ptr %142, align 8, !tbaa !18
  %143 = load ptr, ptr %16, align 8, !tbaa !12
  %144 = getelementptr inbounds nuw %struct._generic_SUNMatrix, ptr %143, i32 0, i32 0
  %145 = load ptr, ptr %144, align 8, !tbaa !36
  %146 = getelementptr inbounds nuw %struct._SUNMatrixContent_Dense, ptr %145, i32 0, i32 4
  %147 = load ptr, ptr %146, align 8, !tbaa !39
  %148 = getelementptr inbounds ptr, ptr %147, i64 2
  %149 = load ptr, ptr %148, align 8, !tbaa !35
  %150 = getelementptr inbounds double, ptr %149, i64 2
  store double 1.000000e+00, ptr %150, align 8, !tbaa !18
  call void @llvm.lifetime.end.p0(i64 8, ptr %26) #6
  call void @llvm.lifetime.end.p0(i64 8, ptr %25) #6
  call void @llvm.lifetime.end.p0(i64 8, ptr %24) #6
  call void @llvm.lifetime.end.p0(i64 8, ptr %23) #6
  call void @llvm.lifetime.end.p0(i64 8, ptr %22) #6
  call void @llvm.lifetime.end.p0(i64 8, ptr %21) #6
  ret i32 0
}