; Function Attrs: mustprogress nofree norecurse nosync nounwind willreturn memory(readwrite, inaccessiblemem: none) uwtable
define internal noundef i32 @Jac(double %0, double noundef %1, ptr noundef readonly captures(none) %2, ptr readnone captures(none) %3, ptr readnone captures(none) %4, ptr noundef readonly captures(none) %5, ptr noundef readonly captures(none) %6, ptr readnone captures(none) %7, ptr readnone captures(none) %8, ptr readnone captures(none) %9) #6 {
  %11 = load ptr, ptr %2, align 8, !tbaa !13
  %12 = getelementptr inbounds nuw i8, ptr %11, i64 16
  %13 = load ptr, ptr %12, align 8, !tbaa !16
  %14 = getelementptr inbounds nuw i8, ptr %13, i64 8
  %15 = load double, ptr %14, align 8, !tbaa !9
  %16 = getelementptr inbounds nuw i8, ptr %13, i64 16
  %17 = load double, ptr %16, align 8, !tbaa !9
  %18 = load double, ptr %6, align 8, !tbaa !9
  %19 = getelementptr inbounds nuw i8, ptr %6, i64 8
  %20 = load double, ptr %19, align 8, !tbaa !9
  %21 = getelementptr inbounds nuw i8, ptr %6, i64 16
  %22 = load double, ptr %21, align 8, !tbaa !9
  %23 = fadd double %1, %18
  %24 = load ptr, ptr %5, align 8, !tbaa !23
  %25 = getelementptr inbounds nuw i8, ptr %24, i64 32
  %26 = load ptr, ptr %25, align 8, !tbaa !26
  %27 = load ptr, ptr %26, align 8, !tbaa !29
  store double %23, ptr %27, align 8, !tbaa !9
  %28 = fneg double %18
  %29 = getelementptr inbounds nuw i8, ptr %27, i64 8
  store double %28, ptr %29, align 8, !tbaa !9
  %30 = getelementptr inbounds nuw i8, ptr %27, i64 16
  store double 1.000000e+00, ptr %30, align 8, !tbaa !9
  %31 = fneg double %20
  %32 = fmul double %17, %31
  %33 = getelementptr inbounds nuw i8, ptr %26, i64 8
  %34 = load ptr, ptr %33, align 8, !tbaa !29
  store double %32, ptr %34, align 8, !tbaa !9
  %35 = fmul double %22, 2.000000e+00
  %36 = fmul double %15, %35
  %37 = tail call double @llvm.fmuladd.f64(double %20, double %17, double %36)
  %38 = fadd double %1, %37
  %39 = getelementptr inbounds nuw i8, ptr %34, i64 8
  store double %38, ptr %39, align 8, !tbaa !9
  %40 = getelementptr inbounds nuw i8, ptr %34, i64 16
  store double 1.000000e+00, ptr %40, align 8, !tbaa !9
  %41 = fmul double %15, %31
  %42 = getelementptr inbounds nuw i8, ptr %26, i64 16
  %43 = load ptr, ptr %42, align 8, !tbaa !29
  store double %41, ptr %43, align 8, !tbaa !9
  %44 = fmul double %15, %20
  %45 = getelementptr inbounds nuw i8, ptr %43, i64 8
  store double %44, ptr %45, align 8, !tbaa !9
  %46 = getelementptr inbounds nuw i8, ptr %43, i64 16
  store double 1.000000e+00, ptr %46, align 8, !tbaa !9
  ret i32 0
}